; Function Attrs: mustprogress uwtable
define noundef nonnull align 8 dereferenceable(48) ptr @_ZN5boost9unit_test19unit_test_monitor_t8instanceEv() local_unnamed_addr #0 align 2 personality ptr @__gxx_personality_v0 {
  %1 = load atomic i8, ptr @_ZGVZN5boost9unit_test19unit_test_monitor_t8instanceEvE8the_inst acquire, align 8
  %2 = icmp eq i8 %1, 0
  br i1 %2, label %3, label %7, !prof !3

3:                                                ; preds = %0
  %4 = tail call i32 @__cxa_guard_acquire(ptr nonnull @_ZGVZN5boost9unit_test19unit_test_monitor_t8instanceEvE8the_inst) #20
  %.not = icmp eq i32 %4, 0
  br i1 %.not, label %7, label %5

5:                                                ; preds = %3
  invoke void @_ZN5boost17execution_monitorC2Ev(ptr noundef nonnull align 8 dereferenceable(48) @_ZZN5boost9unit_test19unit_test_monitor_t8instanceEvE8the_inst)
          to label %_ZN5boost9unit_test19unit_test_monitor_tC2Ev.exit unwind label %8

_ZN5boost9unit_test19unit_test_monitor_tC2Ev.exit: ; preds = %5
  %6 = tail call i32 @__cxa_atexit(ptr nonnull @_ZN5boost17execution_monitorD2Ev, ptr nonnull @_ZZN5boost9unit_test19unit_test_monitor_t8instanceEvE8the_inst, ptr nonnull @__dso_handle) #20
  tail call void @__cxa_guard_release(ptr nonnull @_ZGVZN5boost9unit_test19unit_test_monitor_t8instanceEvE8the_inst) #20
  br label %7

7:                                                ; preds = %_ZN5boost9unit_test19unit_test_monitor_tC2Ev.exit, %3, %0
  ret ptr @_ZZN5boost9unit_test19unit_test_monitor_t8instanceEvE8the_inst

8:                                                ; preds = %5
  %9 = landingpad { ptr, i32 }
          cleanup
  tail call void @__cxa_guard_abort(ptr nonnull @_ZGVZN5boost9unit_test19unit_test_monitor_t8instanceEvE8the_inst) #20
  resume { ptr, i32 } %9
}